; Function Attrs: mustprogress nofree norecurse nosync nounwind willreturn memory(read, inaccessiblemem: none) uwtable
define internal range(i32 0, 2) i32 @check_is_handshake(ptr noundef readonly captures(none) %0) #6 {
  %2 = getelementptr inbounds nuw i8, ptr %0, i64 1096
  %3 = load ptr, ptr %2, align 8, !tbaa !83
  %4 = load ptr, ptr %3, align 8, !tbaa !84
  %5 = load i32, ptr %4, align 8
  %6 = and i32 %5, 255
  %7 = icmp eq i32 %6, 3
  %8 = zext i1 %7 to i32
  ret i32 %8
}